target datalayout = "e-m:e-p270:32:32-p271:32:32-p272:64:64-i64:64-i128:128-f80:128-n8:16:32:64-S128"
target triple = "x86_64-pc-linux-gnu"

; Function Attrs: nounwind uwtable
define internal void @spatial_compensation_0(ptr noalias noundef %0, ptr noalias noundef %1, i64 noundef %2) #1 {
  %4 = alloca ptr, align 8
  %5 = alloca ptr, align 8
  %6 = alloca i64, align 8
  %7 = alloca i32, align 4
  %8 = alloca i32, align 4
  %9 = alloca i32, align 4
  %10 = alloca i32, align 4
  %11 = alloca i32, align 4
  %12 = alloca i32, align 4
  %13 = alloca [2 x [8 x i16]], align 16
  %14 = alloca [2 x [8 x i16]], align 16
  store ptr %0, ptr %4, align 8, !tbaa !14
  store ptr %1, ptr %5, align 8, !tbaa !14
  store i64 %2, ptr %6, align 8, !tbaa !16
  call void @llvm.lifetime.start.p0(i64 4, ptr %7) #6
  call void @llvm.lifetime.start.p0(i64 4, ptr %8) #6
  call void @llvm.lifetime.start.p0(i64 4, ptr %9) #6
  call void @llvm.lifetime.start.p0(i64 4, ptr %10) #6
  call void @llvm.lifetime.start.p0(i64 4, ptr %11) #6
  call void @llvm.lifetime.start.p0(i64 4, ptr %12) #6
  call void @llvm.lifetime.start.p0(i64 32, ptr %13) #6
  call void @llvm.memset.p0.i64(ptr align 16 %13, i8 0, i64 32, i1 false)
  call void @llvm.lifetime.start.p0(i64 32, ptr %14) #6
  call void @llvm.memset.p0.i64(ptr align 16 %14, i8 0, i64 32, i1 false)
  store i32 0, ptr %7, align 4, !tbaa !18
  br label %15

15:                                               ; preds = %54, %3
  %16 = load i32, ptr %7, align 4, !tbaa !18
  %17 = icmp slt i32 %16, 8
  br i1 %17, label %18, label %57

18:                                               ; preds = %15
  %19 = load ptr, ptr %4, align 8, !tbaa !14
  %20 = load i32, ptr %7, align 4, !tbaa !18
  %21 = sub nsw i32 15, %20
  %22 = sext i32 %21 to i64
  %23 = getelementptr inbounds i8, ptr %19, i64 %22
  %24 = load i8, ptr %23, align 1, !tbaa !22
  %25 = zext i8 %24 to i32
  %26 = shl i32 %25, 4
  store i32 %26, ptr %12, align 4, !tbaa !18
  store i32 0, ptr %8, align 4, !tbaa !18
  br label %27

27:                                               ; preds = %50, %18
  %28 = load i32, ptr %8, align 4, !tbaa !18
  %29 = icmp slt i32 %28, 8
  br i1 %29, label %30, label %53

30:                                               ; preds = %27
  %31 = load i32, ptr %7, align 4, !tbaa !18
  %32 = load i32, ptr %8, align 4, !tbaa !18
  %33 = sub nsw i32 %31, %32
  %34 = call i32 @llvm.abs.i32(i32 %33, i1 true)
  store i32 %34, ptr %11, align 4, !tbaa !18
  %35 = load i32, ptr %12, align 4, !tbaa !18
  %36 = load i32, ptr %11, align 4, !tbaa !18
  %37 = lshr i32 %36, 1
  %38 = ashr i32 %35, %37
  %39 = load i32, ptr %11, align 4, !tbaa !18
  %40 = and i32 %39, 1
  %41 = zext i32 %40 to i64
  %42 = getelementptr inbounds nuw [2 x [8 x i16]], ptr %13, i64 0, i64 %41
  %43 = load i32, ptr %8, align 4, !tbaa !18
  %44 = sext i32 %43 to i64
  %45 = getelementptr inbounds [8 x i16], ptr %42, i64 0, i64 %44
  %46 = load i16, ptr %45, align 2, !tbaa !26
  %47 = zext i16 %46 to i32
  %48 = add nsw i32 %47, %38
  %49 = trunc i32 %48 to i16
  store i16 %49, ptr %45, align 2, !tbaa !26
  br label %50

50:                                               ; preds = %30
  %51 = load i32, ptr %8, align 4, !tbaa !18
  %52 = add nsw i32 %51, 1
  store i32 %52, ptr %8, align 4, !tbaa !18
  br label %27, !llvm.loop !28

53:                                               ; preds = %27
  br label %54

54:                                               ; preds = %53
  %55 = load i32, ptr %7, align 4, !tbaa !18
  %56 = add nsw i32 %55, 1
  store i32 %56, ptr %7, align 4, !tbaa !18
  br label %15, !llvm.loop !29

57:                                               ; preds = %15
  store i32 0, ptr %7, align 4, !tbaa !18
  br label %58

58:                                               ; preds = %97, %57
  %59 = load i32, ptr %7, align 4, !tbaa !18
  %60 = icmp slt i32 %59, 8
  br i1 %60, label %61, label %100

61:                                               ; preds = %58
  %62 = load ptr, ptr %4, align 8, !tbaa !14
  %63 = load i32, ptr %7, align 4, !tbaa !18
  %64 = add nsw i32 17, %63
  %65 = sext i32 %64 to i64
  %66 = getelementptr inbounds i8, ptr %62, i64 %65
  %67 = load i8, ptr %66, align 1, !tbaa !22
  %68 = zext i8 %67 to i32
  %69 = shl i32 %68, 4
  store i32 %69, ptr %12, align 4, !tbaa !18
  store i32 0, ptr %8, align 4, !tbaa !18
  br label %70

70:                                               ; preds = %93, %61
  %71 = load i32, ptr %8, align 4, !tbaa !18
  %72 = icmp slt i32 %71, 8
  br i1 %72, label %73, label %96

73:                                               ; preds = %70
  %74 = load i32, ptr %7, align 4, !tbaa !18
  %75 = load i32, ptr %8, align 4, !tbaa !18
  %76 = sub nsw i32 %74, %75
  %77 = call i32 @llvm.abs.i32(i32 %76, i1 true)
  store i32 %77, ptr %11, align 4, !tbaa !18
  %78 = load i32, ptr %12, align 4, !tbaa !18
  %79 = load i32, ptr %11, align 4, !tbaa !18
  %80 = lshr i32 %79, 1
  %81 = ashr i32 %78, %80
  %82 = load i32, ptr %11, align 4, !tbaa !18
  %83 = and i32 %82, 1
  %84 = zext i32 %83 to i64
  %85 = getelementptr inbounds nuw [2 x [8 x i16]], ptr %14, i64 0, i64 %84
  %86 = load i32, ptr %8, align 4, !tbaa !18
  %87 = sext i32 %86 to i64
  %88 = getelementptr inbounds [8 x i16], ptr %85, i64 0, i64 %87
  %89 = load i16, ptr %88, align 2, !tbaa !26
  %90 = zext i16 %89 to i32
  %91 = add nsw i32 %90, %81
  %92 = trunc i32 %91 to i16
  store i16 %92, ptr %88, align 2, !tbaa !26
  br label %93

93:                                               ; preds = %73
  %94 = load i32, ptr %8, align 4, !tbaa !18
  %95 = add nsw i32 %94, 1
  store i32 %95, ptr %8, align 4, !tbaa !18
  br label %70, !llvm.loop !30

96:                                               ; preds = %70
  br label %97

97:                                               ; preds = %96
  %98 = load i32, ptr %7, align 4, !tbaa !18
  %99 = add nsw i32 %98, 1
  store i32 %99, ptr %7, align 4, !tbaa !18
  br label %58, !llvm.loop !31

100:                                              ; preds = %58
  br label %101

101:                                              ; preds = %140, %100
  %102 = load i32, ptr %7, align 4, !tbaa !18
  %103 = icmp slt i32 %102, 10
  br i1 %103, label %104, label %143

104:                                              ; preds = %101
  %105 = load ptr, ptr %4, align 8, !tbaa !14
  %106 = load i32, ptr %7, align 4, !tbaa !18
  %107 = add nsw i32 17, %106
  %108 = sext i32 %107 to i64
  %109 = getelementptr inbounds i8, ptr %105, i64 %108
  %110 = load i8, ptr %109, align 1, !tbaa !22
  %111 = zext i8 %110 to i32
  %112 = shl i32 %111, 4
  store i32 %112, ptr %12, align 4, !tbaa !18
  store i32 5, ptr %8, align 4, !tbaa !18
  br label %113

113:                                              ; preds = %136, %104
  %114 = load i32, ptr %8, align 4, !tbaa !18
  %115 = icmp slt i32 %114, 8
  br i1 %115, label %116, label %139

116:                                              ; preds = %113
  %117 = load i32, ptr %7, align 4, !tbaa !18
  %118 = load i32, ptr %8, align 4, !tbaa !18
  %119 = sub nsw i32 %117, %118
  %120 = call i32 @llvm.abs.i32(i32 %119, i1 true)
  store i32 %120, ptr %11, align 4, !tbaa !18
  %121 = load i32, ptr %12, align 4, !tbaa !18
  %122 = load i32, ptr %11, align 4, !tbaa !18
  %123 = lshr i32 %122, 1
  %124 = ashr i32 %121, %123
  %125 = load i32, ptr %11, align 4, !tbaa !18
  %126 = and i32 %125, 1
  %127 = zext i32 %126 to i64
  %128 = getelementptr inbounds nuw [2 x [8 x i16]], ptr %14, i64 0, i64 %127
  %129 = load i32, ptr %8, align 4, !tbaa !18
  %130 = sext i32 %129 to i64
  %131 = getelementptr inbounds [8 x i16], ptr %128, i64 0, i64 %130
  %132 = load i16, ptr %131, align 2, !tbaa !26
  %133 = zext i16 %132 to i32
  %134 = add nsw i32 %133, %124
  %135 = trunc i32 %134 to i16
  store i16 %135, ptr %131, align 2, !tbaa !26
  br label %136

136:                                              ; preds = %116
  %137 = load i32, ptr %8, align 4, !tbaa !18
  %138 = add nsw i32 %137, 1
  store i32 %138, ptr %8, align 4, !tbaa !18
  br label %113, !llvm.loop !32

139:                                              ; preds = %113
  br label %140

140:                                              ; preds = %139
  %141 = load i32, ptr %7, align 4, !tbaa !18
  %142 = add nsw i32 %141, 1
  store i32 %142, ptr %7, align 4, !tbaa !18
  br label %101, !llvm.loop !33

143:                                              ; preds = %101
  br label %144

144:                                              ; preds = %183, %143
  %145 = load i32, ptr %7, align 4, !tbaa !18
  %146 = icmp slt i32 %145, 12
  br i1 %146, label %147, label %186

147:                                              ; preds = %144
  %148 = load ptr, ptr %4, align 8, !tbaa !14
  %149 = load i32, ptr %7, align 4, !tbaa !18
  %150 = add nsw i32 17, %149
  %151 = sext i32 %150 to i64
  %152 = getelementptr inbounds i8, ptr %148, i64 %151
  %153 = load i8, ptr %152, align 1, !tbaa !22
  %154 = zext i8 %153 to i32
  %155 = shl i32 %154, 4
  store i32 %155, ptr %12, align 4, !tbaa !18
  store i32 7, ptr %8, align 4, !tbaa !18
  br label %156

156:                                              ; preds = %179, %147
  %157 = load i32, ptr %8, align 4, !tbaa !18
  %158 = icmp slt i32 %157, 8
  br i1 %158, label %159, label %182

159:                                              ; preds = %156
  %160 = load i32, ptr %7, align 4, !tbaa !18
  %161 = load i32, ptr %8, align 4, !tbaa !18
  %162 = sub nsw i32 %160, %161
  %163 = call i32 @llvm.abs.i32(i32 %162, i1 true)
  store i32 %163, ptr %11, align 4, !tbaa !18
  %164 = load i32, ptr %12, align 4, !tbaa !18
  %165 = load i32, ptr %11, align 4, !tbaa !18
  %166 = lshr i32 %165, 1
  %167 = ashr i32 %164, %166
  %168 = load i32, ptr %11, align 4, !tbaa !18
  %169 = and i32 %168, 1
  %170 = zext i32 %169 to i64
  %171 = getelementptr inbounds nuw [2 x [8 x i16]], ptr %14, i64 0, i64 %170
  %172 = load i32, ptr %8, align 4, !tbaa !18
  %173 = sext i32 %172 to i64
  %174 = getelementptr inbounds [8 x i16], ptr %171, i64 0, i64 %173
  %175 = load i16, ptr %174, align 2, !tbaa !26
  %176 = zext i16 %175 to i32
  %177 = add nsw i32 %176, %167
  %178 = trunc i32 %177 to i16
  store i16 %178, ptr %174, align 2, !tbaa !26
  br label %179

179:                                              ; preds = %159
  %180 = load i32, ptr %8, align 4, !tbaa !18
  %181 = add nsw i32 %180, 1
  store i32 %181, ptr %8, align 4, !tbaa !18
  br label %156, !llvm.loop !34

182:                                              ; preds = %156
  br label %183

183:                                              ; preds = %182
  %184 = load i32, ptr %7, align 4, !tbaa !18
  %185 = add nsw i32 %184, 1
  store i32 %185, ptr %7, align 4, !tbaa !18
  br label %144, !llvm.loop !35

186:                                              ; preds = %144
  store i32 0, ptr %7, align 4, !tbaa !18
  br label %187

187:                                              ; preds = %225, %186
  %188 = load i32, ptr %7, align 4, !tbaa !18
  %189 = icmp slt i32 %188, 8
  br i1 %189, label %190, label %228

190:                                              ; preds = %187
  %191 = getelementptr inbounds [2 x [8 x i16]], ptr %14, i64 0, i64 1
  %192 = load i32, ptr %7, align 4, !tbaa !18
  %193 = sext i32 %192 to i64
  %194 = getelementptr inbounds [8 x i16], ptr %191, i64 0, i64 %193
  %195 = load i16, ptr %194, align 2, !tbaa !26
  %196 = zext i16 %195 to i32
  %197 = mul nsw i32 %196, 181
  %198 = add nsw i32 %197, 128
  %199 = ashr i32 %198, 8
  %200 = getelementptr inbounds [2 x [8 x i16]], ptr %14, i64 0, i64 0
  %201 = load i32, ptr %7, align 4, !tbaa !18
  %202 = sext i32 %201 to i64
  %203 = getelementptr inbounds [8 x i16], ptr %200, i64 0, i64 %202
  %204 = load i16, ptr %203, align 2, !tbaa !26
  %205 = zext i16 %204 to i32
  %206 = add nsw i32 %205, %199
  %207 = trunc i32 %206 to i16
  store i16 %207, ptr %203, align 2, !tbaa !26
  %208 = getelementptr inbounds [2 x [8 x i16]], ptr %13, i64 0, i64 1
  %209 = load i32, ptr %7, align 4, !tbaa !18
  %210 = sext i32 %209 to i64
  %211 = getelementptr inbounds [8 x i16], ptr %208, i64 0, i64 %210
  %212 = load i16, ptr %211, align 2, !tbaa !26
  %213 = zext i16 %212 to i32
  %214 = mul nsw i32 %213, 181
  %215 = add nsw i32 %214, 128
  %216 = ashr i32 %215, 8
  %217 = getelementptr inbounds [2 x [8 x i16]], ptr %13, i64 0, i64 0
  %218 = load i32, ptr %7, align 4, !tbaa !18
  %219 = sext i32 %218 to i64
  %220 = getelementptr inbounds [8 x i16], ptr %217, i64 0, i64 %219
  %221 = load i16, ptr %220, align 2, !tbaa !26
  %222 = zext i16 %221 to i32
  %223 = add nsw i32 %222, %216
  %224 = trunc i32 %223 to i16
  store i16 %224, ptr %220, align 2, !tbaa !26
  br label %225

225:                                              ; preds = %190
  %226 = load i32, ptr %7, align 4, !tbaa !18
  %227 = add nsw i32 %226, 1
  store i32 %227, ptr %7, align 4, !tbaa !18
  br label %187, !llvm.loop !36

228:                                              ; preds = %187
  store i32 0, ptr %10, align 4, !tbaa !18
  br label %229

229:                                              ; preds = %286, %228
  %230 = load i32, ptr %10, align 4, !tbaa !18
  %231 = icmp slt i32 %230, 8
  br i1 %231, label %232, label %289

232:                                              ; preds = %229
  store i32 0, ptr %9, align 4, !tbaa !18
  br label %233

233:                                              ; preds = %279, %232
  %234 = load i32, ptr %9, align 4, !tbaa !18
  %235 = icmp slt i32 %234, 8
  br i1 %235, label %236, label %282

236:                                              ; preds = %233
  %237 = getelementptr inbounds [2 x [8 x i16]], ptr %14, i64 0, i64 0
  %238 = load i32, ptr %9, align 4, !tbaa !18
  %239 = sext i32 %238 to i64
  %240 = getelementptr inbounds [8 x i16], ptr %237, i64 0, i64 %239
  %241 = load i16, ptr %240, align 2, !tbaa !26
  %242 = zext i16 %241 to i32
  %243 = load i32, ptr %10, align 4, !tbaa !18
  %244 = mul nsw i32 %243, 16
  %245 = load i32, ptr %9, align 4, !tbaa !18
  %246 = mul nsw i32 %245, 2
  %247 = add nsw i32 %244, %246
  %248 = add nsw i32 %247, 0
  %249 = sext i32 %248 to i64
  %250 = getelementptr inbounds [128 x i16], ptr @zero_prediction_weights, i64 0, i64 %249
  %251 = load i16, ptr %250, align 2, !tbaa !26
  %252 = zext i16 %251 to i32
  %253 = mul i32 %242, %252
  %254 = getelementptr inbounds [2 x [8 x i16]], ptr %13, i64 0, i64 0
  %255 = load i32, ptr %10, align 4, !tbaa !18
  %256 = sext i32 %255 to i64
  %257 = getelementptr inbounds [8 x i16], ptr %254, i64 0, i64 %256
  %258 = load i16, ptr %257, align 2, !tbaa !26
  %259 = zext i16 %258 to i32
  %260 = load i32, ptr %10, align 4, !tbaa !18
  %261 = mul nsw i32 %260, 16
  %262 = load i32, ptr %9, align 4, !tbaa !18
  %263 = mul nsw i32 %262, 2
  %264 = add nsw i32 %261, %263
  %265 = add nsw i32 %264, 1
  %266 = sext i32 %265 to i64
  %267 = getelementptr inbounds [128 x i16], ptr @zero_prediction_weights, i64 0, i64 %266
  %268 = load i16, ptr %267, align 2, !tbaa !26
  %269 = zext i16 %268 to i32
  %270 = mul i32 %259, %269
  %271 = add i32 %253, %270
  %272 = add i32 %271, 32768
  %273 = lshr i32 %272, 16
  %274 = trunc i32 %273 to i8
  %275 = load ptr, ptr %5, align 8, !tbaa !14
  %276 = load i32, ptr %9, align 4, !tbaa !18
  %277 = sext i32 %276 to i64
  %278 = getelementptr inbounds i8, ptr %275, i64 %277
  store i8 %274, ptr %278, align 1, !tbaa !22
  br label %279

279:                                              ; preds = %236
  %280 = load i32, ptr %9, align 4, !tbaa !18
  %281 = add nsw i32 %280, 1
  store i32 %281, ptr %9, align 4, !tbaa !18
  br label %233, !llvm.loop !37

282:                                              ; preds = %233
  %283 = load i64, ptr %6, align 8, !tbaa !16
  %284 = load ptr, ptr %5, align 8, !tbaa !14
  %285 = getelementptr inbounds i8, ptr %284, i64 %283
  store ptr %285, ptr %5, align 8, !tbaa !14
  br label %286

286:                                              ; preds = %282
  %287 = load i32, ptr %10, align 4, !tbaa !18
  %288 = add nsw i32 %287, 1
  store i32 %288, ptr %10, align 4, !tbaa !18
  br label %229, !llvm.loop !38

289:                                              ; preds = %229
  call void @llvm.lifetime.end.p0(i64 32, ptr %14) #6
  call void @llvm.lifetime.end.p0(i64 32, ptr %13) #6
  call void @llvm.lifetime.end.p0(i64 4, ptr %12) #6
  call void @llvm.lifetime.end.p0(i64 4, ptr %11) #6
  call void @llvm.lifetime.end.p0(i64 4, ptr %10) #6
  call void @llvm.lifetime.end.p0(i64 4, ptr %9) #6
  call void @llvm.lifetime.end.p0(i64 4, ptr %8) #6
  call void @llvm.lifetime.end.p0(i64 4, ptr %7) #6
  ret void
}