; Function Attrs: nofree norecurse nosync nounwind memory(argmem: readwrite) uwtable
define internal void @spatial_compensation_0(ptr noalias noundef readonly captures(none) %0, ptr noalias noundef writeonly captures(none) %1, i64 noundef %2) #1 {
  %4 = alloca [2 x [8 x i16]], align 16
  %5 = alloca [2 x [8 x i16]], align 16
  call void @llvm.lifetime.start.p0(i64 32, ptr nonnull %4) #7
  call void @llvm.memset.p0.i64(ptr noundef nonnull align 16 dereferenceable(32) %4, i8 0, i64 32, i1 false)
  call void @llvm.lifetime.start.p0(i64 32, ptr nonnull %5) #7
  call void @llvm.memset.p0.i64(ptr noundef nonnull align 16 dereferenceable(32) %5, i8 0, i64 32, i1 false)
  br label %6

.preheader78:                                     ; preds = %24
  %invariant.gep = getelementptr inbounds nuw i8, ptr %0, i64 17
  br label %25

6:                                                ; preds = %3, %24
  %indvars.iv96 = phi i64 [ 0, %3 ], [ %indvars.iv.next97, %24 ]
  %7 = sub nuw nsw i64 15, %indvars.iv96
  %8 = getelementptr inbounds nuw i8, ptr %0, i64 %7
  %9 = load i8, ptr %8, align 1, !tbaa !14
  %10 = zext i8 %9 to i32
  %11 = shl nuw nsw i32 %10, 4
  br label %12

12:                                               ; preds = %6, %12
  %indvars.iv = phi i64 [ 0, %6 ], [ %indvars.iv.next, %12 ]
  %13 = sub nsw i64 %indvars.iv96, %indvars.iv
  %14 = trunc nsw i64 %13 to i32
  %15 = tail call i32 @llvm.abs.i32(i32 %14, i1 true)
  %16 = lshr i32 %15, 1
  %17 = lshr i32 %11, %16
  %18 = and i32 %15, 1
  %19 = zext nneg i32 %18 to i64
  %20 = getelementptr inbounds nuw [2 x [8 x i16]], ptr %4, i64 0, i64 %19, i64 %indvars.iv
  %21 = load i16, ptr %20, align 2, !tbaa !18
  %22 = trunc nuw nsw i32 %17 to i16
  %23 = add i16 %21, %22
  store i16 %23, ptr %20, align 2, !tbaa !18
  %indvars.iv.next = add nuw nsw i64 %indvars.iv, 1
  %exitcond.not = icmp eq i64 %indvars.iv.next, 8
  br i1 %exitcond.not, label %24, label %12, !llvm.loop !20

24:                                               ; preds = %12
  %indvars.iv.next97 = add nuw nsw i64 %indvars.iv96, 1
  %exitcond99.not = icmp eq i64 %indvars.iv.next97, 8
  br i1 %exitcond99.not, label %.preheader78, label %6, !llvm.loop !21

25:                                               ; preds = %.preheader78, %41
  %indvars.iv104 = phi i64 [ 0, %.preheader78 ], [ %indvars.iv.next105, %41 ]
  %gep = getelementptr inbounds nuw i8, ptr %invariant.gep, i64 %indvars.iv104
  %26 = load i8, ptr %gep, align 1, !tbaa !14
  %27 = zext i8 %26 to i32
  %28 = shl nuw nsw i32 %27, 4
  br label %29

29:                                               ; preds = %25, %29
  %indvars.iv100 = phi i64 [ 0, %25 ], [ %indvars.iv.next101, %29 ]
  %30 = sub nsw i64 %indvars.iv104, %indvars.iv100
  %31 = trunc nsw i64 %30 to i32
  %32 = tail call i32 @llvm.abs.i32(i32 %31, i1 true)
  %33 = lshr i32 %32, 1
  %34 = lshr i32 %28, %33
  %35 = and i32 %32, 1
  %36 = zext nneg i32 %35 to i64
  %37 = getelementptr inbounds nuw [2 x [8 x i16]], ptr %5, i64 0, i64 %36, i64 %indvars.iv100
  %38 = load i16, ptr %37, align 2, !tbaa !18
  %39 = trunc nuw nsw i32 %34 to i16
  %40 = add i16 %38, %39
  store i16 %40, ptr %37, align 2, !tbaa !18
  %indvars.iv.next101 = add nuw nsw i64 %indvars.iv100, 1
  %exitcond103.not = icmp eq i64 %indvars.iv.next101, 8
  br i1 %exitcond103.not, label %41, label %29, !llvm.loop !22

41:                                               ; preds = %29
  %indvars.iv.next105 = add nuw nsw i64 %indvars.iv104, 1
  %exitcond107.not = icmp eq i64 %indvars.iv.next105, 8
  br i1 %exitcond107.not, label %.lr.ph, label %25, !llvm.loop !23

.lr.ph:                                           ; preds = %41, %55
  %indvars.iv112 = phi i64 [ %indvars.iv.next113, %55 ], [ 8, %41 ]
  %gep85 = getelementptr inbounds nuw i8, ptr %invariant.gep, i64 %indvars.iv112
  %42 = load i8, ptr %gep85, align 1, !tbaa !14
  %43 = zext i8 %42 to i32
  %44 = shl nuw nsw i32 %43, 4
  br label %45

45:                                               ; preds = %.lr.ph, %45
  %indvars.iv108 = phi i64 [ 5, %.lr.ph ], [ %indvars.iv.next109, %45 ]
  %46 = sub nuw nsw i64 %indvars.iv112, %indvars.iv108
  %47 = trunc nuw nsw i64 %46 to i32
  %48 = lshr i32 %47, 1
  %49 = lshr i32 %44, %48
  %50 = and i64 %46, 1
  %51 = getelementptr inbounds nuw [2 x [8 x i16]], ptr %5, i64 0, i64 %50, i64 %indvars.iv108
  %52 = load i16, ptr %51, align 2, !tbaa !18
  %53 = trunc nuw nsw i32 %49 to i16
  %54 = add i16 %52, %53
  store i16 %54, ptr %51, align 2, !tbaa !18
  %indvars.iv.next109 = add nuw nsw i64 %indvars.iv108, 1
  %exitcond111.not = icmp eq i64 %indvars.iv.next109, 8
  br i1 %exitcond111.not, label %55, label %45, !llvm.loop !24

55:                                               ; preds = %45
  %indvars.iv.next113 = add nuw nsw i64 %indvars.iv112, 1
  %exitcond115.not = icmp eq i64 %indvars.iv.next113, 10
  br i1 %exitcond115.not, label %.critedge, label %.lr.ph, !llvm.loop !25

.preheader75:                                     ; preds = %.critedge
  %56 = getelementptr inbounds nuw i8, ptr %5, i64 16
  %57 = getelementptr inbounds nuw i8, ptr %4, i64 16
  br label %70

.critedge:                                        ; preds = %55, %.critedge
  %indvars.iv116 = phi i64 [ %indvars.iv.next117, %.critedge ], [ 10, %55 ]
  %gep88 = getelementptr inbounds nuw i8, ptr %invariant.gep, i64 %indvars.iv116
  %58 = load i8, ptr %gep88, align 1, !tbaa !14
  %59 = zext i8 %58 to i32
  %60 = shl nuw nsw i32 %59, 4
  %61 = add nsw i64 %indvars.iv116, -7
  %62 = trunc nuw nsw i64 %61 to i32
  %63 = lshr i32 %62, 1
  %64 = lshr i32 %60, %63
  %65 = and i64 %61, 1
  %66 = getelementptr inbounds nuw [2 x [8 x i16]], ptr %5, i64 0, i64 %65, i64 7
  %67 = load i16, ptr %66, align 2, !tbaa !18
  %68 = trunc nuw nsw i32 %64 to i16
  %69 = add i16 %67, %68
  store i16 %69, ptr %66, align 2, !tbaa !18
  %indvars.iv.next117 = add nuw nsw i64 %indvars.iv116, 1
  %exitcond119.not = icmp eq i64 %indvars.iv.next117, 12
  br i1 %exitcond119.not, label %.preheader75, label %.critedge, !llvm.loop !26

70:                                               ; preds = %.preheader75, %70
  %indvars.iv120 = phi i64 [ 0, %.preheader75 ], [ %indvars.iv.next121, %70 ]
  %71 = getelementptr inbounds nuw [8 x i16], ptr %56, i64 0, i64 %indvars.iv120
  %72 = load i16, ptr %71, align 2, !tbaa !18
  %73 = zext i16 %72 to i32
  %74 = mul nuw nsw i32 %73, 181
  %75 = add nuw nsw i32 %74, 128
  %76 = lshr i32 %75, 8
  %77 = getelementptr inbounds nuw [8 x i16], ptr %5, i64 0, i64 %indvars.iv120
  %78 = load i16, ptr %77, align 2, !tbaa !18
  %79 = trunc nuw i32 %76 to i16
  %80 = add i16 %78, %79
  store i16 %80, ptr %77, align 2, !tbaa !18
  %81 = getelementptr inbounds nuw [8 x i16], ptr %57, i64 0, i64 %indvars.iv120
  %82 = load i16, ptr %81, align 2, !tbaa !18
  %83 = zext i16 %82 to i32
  %84 = mul nuw nsw i32 %83, 181
  %85 = add nuw nsw i32 %84, 128
  %86 = lshr i32 %85, 8
  %87 = getelementptr inbounds nuw [8 x i16], ptr %4, i64 0, i64 %indvars.iv120
  %88 = load i16, ptr %87, align 2, !tbaa !18
  %89 = trunc nuw i32 %86 to i16
  %90 = add i16 %88, %89
  store i16 %90, ptr %87, align 2, !tbaa !18
  %indvars.iv.next121 = add nuw nsw i64 %indvars.iv120, 1
  %exitcond123.not = icmp eq i64 %indvars.iv.next121, 8
  br i1 %exitcond123.not, label %.preheader, label %70, !llvm.loop !27

.preheader:                                       ; preds = %70, %115
  %indvars.iv128 = phi i64 [ %indvars.iv.next129, %115 ], [ 0, %70 ]
  %.07392 = phi ptr [ %116, %115 ], [ %1, %70 ]
  %91 = shl nuw nsw i64 %indvars.iv128, 4
  %92 = getelementptr inbounds nuw [8 x i16], ptr %4, i64 0, i64 %indvars.iv128
  %93 = load i16, ptr %92, align 2, !tbaa !18
  %94 = zext i16 %93 to i32
  br label %95

95:                                               ; preds = %.preheader, %95
  %indvars.iv124 = phi i64 [ 0, %.preheader ], [ %indvars.iv.next125, %95 ]
  %96 = getelementptr inbounds nuw [8 x i16], ptr %5, i64 0, i64 %indvars.iv124
  %97 = load i16, ptr %96, align 2, !tbaa !18
  %98 = zext i16 %97 to i32
  %99 = shl nuw nsw i64 %indvars.iv124, 1
  %100 = add nuw nsw i64 %99, %91
  %101 = getelementptr inbounds nuw [128 x i16], ptr @zero_prediction_weights, i64 0, i64 %100
  %102 = load i16, ptr %101, align 4, !tbaa !18
  %103 = zext i16 %102 to i32
  %104 = mul nuw i32 %103, %98
  %105 = or disjoint i64 %100, 1
  %106 = getelementptr inbounds nuw [128 x i16], ptr @zero_prediction_weights, i64 0, i64 %105
  %107 = load i16, ptr %106, align 2, !tbaa !18
  %108 = zext i16 %107 to i32
  %109 = mul nuw i32 %108, %94
  %110 = add nuw i32 %104, 32768
  %111 = add i32 %110, %109
  %112 = lshr i32 %111, 16
  %113 = trunc i32 %112 to i8
  %114 = getelementptr inbounds nuw i8, ptr %.07392, i64 %indvars.iv124
  store i8 %113, ptr %114, align 1, !tbaa !14
  %indvars.iv.next125 = add nuw nsw i64 %indvars.iv124, 1
  %exitcond127.not = icmp eq i64 %indvars.iv.next125, 8
  br i1 %exitcond127.not, label %115, label %95, !llvm.loop !28

115:                                              ; preds = %95
  %116 = getelementptr inbounds i8, ptr %.07392, i64 %2
  %indvars.iv.next129 = add nuw nsw i64 %indvars.iv128, 1
  %exitcond131.not = icmp eq i64 %indvars.iv.next129, 8
  br i1 %exitcond131.not, label %117, label %.preheader, !llvm.loop !29

117:                                              ; preds = %115
  call void @llvm.lifetime.end.p0(i64 32, ptr nonnull %5) #7
  call void @llvm.lifetime.end.p0(i64 32, ptr nonnull %4) #7
  ret void
}